; Function Attrs: inlinehint nofree nounwind memory(write, argmem: none, inaccessiblemem: readwrite) uwtable
define internal fastcc noalias noundef ptr @pmix_bfrops_base_tma_envar_create(i64 noundef %0) unnamed_addr #20 {
  %2 = icmp eq i64 %0, 0
  br i1 %2, label %.loopexit, label %3

3:                                                ; preds = %1
  %4 = mul i64 %0, 24
  %5 = tail call noalias noundef ptr @malloc(i64 noundef %4) #25
  %.not = icmp eq ptr %5, null
  br i1 %.not, label %.loopexit, label %.preheader, !prof !43

.preheader:                                       ; preds = %3, %.preheader
  %.01 = phi i64 [ %7, %.preheader ], [ 0, %3 ]
  %6 = getelementptr inbounds nuw %struct.pmix_envar_t, ptr %5, i64 %.01
  tail call void @llvm.memset.p0.i64(ptr noundef nonnull align 8 dereferenceable(17) %6, i8 0, i64 17, i1 false)
  %7 = add nuw i64 %.01, 1
  %exitcond.not = icmp eq i64 %7, %0
  br i1 %exitcond.not, label %.loopexit, label %.preheader, !llvm.loop !238

.loopexit:                                        ; preds = %.preheader, %3, %1
  %.011 = phi ptr [ null, %1 ], [ null, %3 ], [ %5, %.preheader ]
  ret ptr %.011
}